# SymbolsHelper-Confirmed: 0.6.0 amd64 i386
libqaccessibilityclient-qt5.so.0 libqaccessibilityclient-qt5-0 #MINVER#
* Build-Depends-Package: libqaccessibilityclient-qt5-dev
 _ZN17QAccessibleClient16AccessibleObject10deleteTextEii@Base 0+git20130108
 _ZN17QAccessibleClient16AccessibleObject10insertTextERK7QStringii@Base 0+git20130108
 _ZN17QAccessibleClient16AccessibleObject15setCurrentValueEd@Base 0.3.0
 _ZN17QAccessibleClient16AccessibleObject17setTextSelectionsERK5QListI5QPairIiiEE@Base 0+git20130108
 _ZN17QAccessibleClient16AccessibleObject7cutTextEii@Base 0+git20130108
 _ZN17QAccessibleClient16AccessibleObject7setTextERK7QString@Base 0+git20130108
 _ZN17QAccessibleClient16AccessibleObject8copyTextEii@Base 0+git20130108
 _ZN17QAccessibleClient16AccessibleObject9pasteTextEi@Base 0+git20130108
 _ZN17QAccessibleClient16AccessibleObjectC1EPNS_15RegistryPrivateERK7QStringS5_@Base 0+git20130108
 _ZN17QAccessibleClient16AccessibleObjectC1ERK14QSharedPointerINS_23AccessibleObjectPrivateEE@Base 0+git20130108
 _ZN17QAccessibleClient16AccessibleObjectC1ERKS0_@Base 0+git20130108
 _ZN17QAccessibleClient16AccessibleObjectC1Ev@Base 0+git20130108
 _ZN17QAccessibleClient16AccessibleObjectC2EPNS_15RegistryPrivateERK7QStringS5_@Base 0+git20130108
 _ZN17QAccessibleClient16AccessibleObjectC2ERK14QSharedPointerINS_23AccessibleObjectPrivateEE@Base 0+git20130108
 _ZN17QAccessibleClient16AccessibleObjectC2ERKS0_@Base 0+git20130108
 _ZN17QAccessibleClient16AccessibleObjectC2Ev@Base 0+git20130108
 _ZN17QAccessibleClient16AccessibleObjectD1Ev@Base 0+git20130108
 _ZN17QAccessibleClient16AccessibleObjectD2Ev@Base 0+git20130108
 _ZN17QAccessibleClient16AccessibleObjectaSERKS0_@Base 0+git20130108
 _ZN17QAccessibleClient23RegistryPrivateCacheApi12setCacheTypeENS0_9CacheTypeE@Base 0.6.0
 _ZN17QAccessibleClient23RegistryPrivateCacheApi16clearClientCacheEv@Base 0.6.0
 _ZN17QAccessibleClient23RegistryPrivateCacheApiC1EPNS_8RegistryE@Base 0.6.0
 _ZN17QAccessibleClient23RegistryPrivateCacheApiC2EPNS_8RegistryE@Base 0.6.0
 _ZN17QAccessibleClient8Registry10childAddedERKNS_16AccessibleObjectEi@Base 0+git20130108
 _ZN17QAccessibleClient8Registry10setEnabledEb@Base 0+git20130108
 _ZN17QAccessibleClient8Registry11qt_metacallEN11QMetaObject4CallEiPPv@Base 0+git20130108
 _ZN17QAccessibleClient8Registry11qt_metacastEPKc@Base 0+git20130108
 _ZN17QAccessibleClient8Registry11textChangedERKNS_16AccessibleObjectERK7QStringii@Base 0+git20130108
 _ZN17QAccessibleClient8Registry11textRemovedERKNS_16AccessibleObjectERK7QStringii@Base 0+git20130108
 _ZN17QAccessibleClient8Registry11windowMovedERKNS_16AccessibleObjectE@Base 0+git20130108
 _ZN17QAccessibleClient8Registry12childRemovedERKNS_16AccessibleObjectEi@Base 0+git20130108
 _ZN17QAccessibleClient8Registry12focusChangedERKNS_16AccessibleObjectE@Base 0+git20130108
 _ZN17QAccessibleClient8Registry12modelChangedERKNS_16AccessibleObjectE@Base 0+git20130108
 _ZN17QAccessibleClient8Registry12stateChangedERKNS_16AccessibleObjectERK7QStringb@Base 0+git20130108
 _ZN17QAccessibleClient8Registry12textInsertedERKNS_16AccessibleObjectERK7QStringii@Base 0+git20130108
 _ZN17QAccessibleClient8Registry12windowClosedERKNS_16AccessibleObjectE@Base 0+git20130108
 _ZN17QAccessibleClient8Registry12windowRaisedERKNS_16AccessibleObjectE@Base 0+git20130108
 _ZN17QAccessibleClient8Registry12windowShadedERKNS_16AccessibleObjectE@Base 0+git20130108
 _ZN17QAccessibleClient8Registry13windowCreatedERKNS_16AccessibleObjectE@Base 0+git20130108
 _ZN17QAccessibleClient8Registry13windowLoweredERKNS_16AccessibleObjectE@Base 0+git20130108
 _ZN17QAccessibleClient8Registry13windowResizedERKNS_16AccessibleObjectE@Base 0+git20130108
 _ZN17QAccessibleClient8Registry14enabledChangedEb@Base 0+git20130108
 _ZN17QAccessibleClient8Registry14textCaretMovedERKNS_16AccessibleObjectEi@Base 0+git20130108
 _ZN17QAccessibleClient8Registry14windowRestoredERKNS_16AccessibleObjectE@Base 0+git20130108
 _ZN17QAccessibleClient8Registry14windowUnshadedERKNS_16AccessibleObjectE@Base 0+git20130108
 _ZN17QAccessibleClient8Registry15windowActivatedERKNS_16AccessibleObjectE@Base 0+git20130108
 _ZN17QAccessibleClient8Registry15windowDestroyedERKNS_16AccessibleObjectE@Base 0+git20130108
 _ZN17QAccessibleClient8Registry15windowMaximizedERKNS_16AccessibleObjectE@Base 0+git20130108
 _ZN17QAccessibleClient8Registry15windowMinimizedERKNS_16AccessibleObjectE@Base 0+git20130108
 _ZN17QAccessibleClient8Registry16selectionChangedERKNS_16AccessibleObjectE@Base 0+git20130108
 _ZN17QAccessibleClient8Registry16staticMetaObjectE@Base 0+git20130108
 _ZN17QAccessibleClient8Registry16windowReparentedERKNS_16AccessibleObjectE@Base 0+git20130108
 _ZN17QAccessibleClient8Registry17windowDeactivatedERKNS_16AccessibleObjectE@Base 0+git20130108
 _ZN17QAccessibleClient8Registry18visibleDataChangedERKNS_16AccessibleObjectE@Base 0+git20130108
 _ZN17QAccessibleClient8Registry20textSelectionChangedERKNS_16AccessibleObjectE@Base 0+git20130108
 _ZN17QAccessibleClient8Registry20windowDesktopCreatedERKNS_16AccessibleObjectE@Base 0+git20130108
 _ZN17QAccessibleClient8Registry21accessibleNameChangedERKNS_16AccessibleObjectE@Base 0+git20130108
 _ZN17QAccessibleClient8Registry22setScreenReaderEnabledEb@Base 0+git20130108
 _ZN17QAccessibleClient8Registry22windowDesktopDestroyedERKNS_16AccessibleObjectE@Base 0+git20130108
 _ZN17QAccessibleClient8Registry26screenReaderEnabledChangedEb@Base 0+git20130108
 _ZN17QAccessibleClient8Registry28accessibleDescriptionChangedERKNS_16AccessibleObjectE@Base 0+git20130108
 _ZN17QAccessibleClient8Registry5addedERKNS_16AccessibleObjectE@Base 0+git20130108
 _ZN17QAccessibleClient8Registry7defunctERKNS_16AccessibleObjectE@Base 0+git20130108
 _ZN17QAccessibleClient8Registry7removedERKNS_16AccessibleObjectE@Base 0+git20130108
 _ZN17QAccessibleClient8RegistryC1EP7QObject@Base 0+git20130108
 _ZN17QAccessibleClient8RegistryC2EP7QObject@Base 0+git20130108
 _ZN17QAccessibleClient8RegistryD0Ev@Base 0+git20130108
 _ZN17QAccessibleClient8RegistryD1Ev@Base 0+git20130108
 _ZN17QAccessibleClient8RegistryD2Ev@Base 0+git20130108
 _ZN17QAccessibleClientlsE6QDebugRKNS_16AccessibleObjectE@Base 0+git20130108
 _ZNK17QAccessibleClient16AccessibleObject10appVersionEv@Base 0+git20130108
 _ZNK17QAccessibleClient16AccessibleObject10childCountEv@Base 0+git20130108
 _ZNK17QAccessibleClient16AccessibleObject10focusPointEv@Base 0+git20130108
 _ZNK17QAccessibleClient16AccessibleObject10hasToolTipEv@Base 0+git20130108
 _ZNK17QAccessibleClient16AccessibleObject10isEditableEv@Base 0+git20130108
 _ZNK17QAccessibleClient16AccessibleObject10isExpandedEv@Base 0+git20130108
 _ZNK17QAccessibleClient16AccessibleObject10isSelectedEv@Base 0+git20130108
 _ZNK17QAccessibleClient16AccessibleObject11applicationEv@Base 0+git20130108
 _ZNK17QAccessibleClient16AccessibleObject11caretOffsetEv@Base 0+git20130108
 _ZNK17QAccessibleClient16AccessibleObject11descriptionEv@Base 0+git20130108
 _ZNK17QAccessibleClient16AccessibleObject11imageLocaleEv@Base 0+git20130108
 _ZNK17QAccessibleClient16AccessibleObject11isCheckableEv@Base 0+git20130108
 _ZNK17QAccessibleClient16AccessibleObject11isFocusableEv@Base 0+git20130108
 _ZNK17QAccessibleClient16AccessibleObject11isMultiLineEv@Base 0+git20130108
 _ZNK17QAccessibleClient16AccessibleObject11isSensitiveEv@Base 0+git20130108
 _ZNK17QAccessibleClient16AccessibleObject11stateStringEv@Base 0.3.0
 _ZNK17QAccessibleClient16AccessibleObject12accessibleIdEv@Base 0.5.0
 _ZNK17QAccessibleClient16AccessibleObject12boundingRectEv@Base 0+git20130108
 _ZNK17QAccessibleClient16AccessibleObject12currentValueEv@Base 0+git20130108
 _ZNK17QAccessibleClient16AccessibleObject12isExpandableEv@Base 0+git20130108
 _ZNK17QAccessibleClient16AccessibleObject12isSelectableEv@Base 0+git20130108
 _ZNK17QAccessibleClient16AccessibleObject12isSingleLineEv@Base 0+git20130108
 _ZNK17QAccessibleClient16AccessibleObject12maximumValueEv@Base 0+git20130108
 _ZNK17QAccessibleClient16AccessibleObject12minimumValueEv@Base 0+git20130108
 _ZNK17QAccessibleClient16AccessibleObject13appBusAddressEv@Base 0+git20130108
 _ZNK17QAccessibleClient16AccessibleObject13characterRectEi@Base 0+git20130108
 _ZNK17QAccessibleClient16AccessibleObject13indexInParentEv@Base 0+git20130108
 _ZNK17QAccessibleClient16AccessibleObject14appToolkitNameEv@Base 0+git20130108
 _ZNK17QAccessibleClient16AccessibleObject14characterCountEv@Base 0+git20130108
 _ZNK17QAccessibleClient16AccessibleObject14textSelectionsEv@Base 0+git20130108
 _ZNK17QAccessibleClient16AccessibleObject16imageDescriptionEv@Base 0+git20130108
 _ZNK17QAccessibleClient16AccessibleObject16textWithBoundaryEiNS0_12TextBoundaryEPiS2_@Base 0.2.0
 _ZNK17QAccessibleClient16AccessibleObject17hasSelectableTextEv@Base 0+git20130108
 _ZNK17QAccessibleClient16AccessibleObject17localizedRoleNameEv@Base 0+git20130108
 _ZNK17QAccessibleClient16AccessibleObject19supportedInterfacesEv@Base 0+git20130108
 _ZNK17QAccessibleClient16AccessibleObject21minimumValueIncrementEv@Base 0+git20130108
 _ZNK17QAccessibleClient16AccessibleObject22supportsAutocompletionEv@Base 0+git20130108
 _ZNK17QAccessibleClient16AccessibleObject2idEv@Base 0+git20130108
 _ZNK17QAccessibleClient16AccessibleObject3urlEv@Base 0+git20130108
 _ZNK17QAccessibleClient16AccessibleObject4nameEv@Base 0+git20130108
 _ZNK17QAccessibleClient16AccessibleObject4roleEv@Base 0+git20130108
 _ZNK17QAccessibleClient16AccessibleObject4textEii@Base 0+git20130108
 _ZNK17QAccessibleClient16AccessibleObject5alphaEv@Base 0+git20130108
 _ZNK17QAccessibleClient16AccessibleObject5appIdEv@Base 0+git20130108
 _ZNK17QAccessibleClient16AccessibleObject5childEi@Base 0+git20130108
 _ZNK17QAccessibleClient16AccessibleObject5layerEv@Base 0+git20130108
 _ZNK17QAccessibleClient16AccessibleObject6parentEv@Base 0+git20130108
 _ZNK17QAccessibleClient16AccessibleObject7actionsEv@Base 0+git20130108
 _ZNK17QAccessibleClient16AccessibleObject7isValidEv@Base 0+git20130108
 _ZNK17QAccessibleClient16AccessibleObject8childrenERK5QListINS0_4RoleEE@Base 0+git20130108
 _ZNK17QAccessibleClient16AccessibleObject8childrenEv@Base 0+git20130108
 _ZNK17QAccessibleClient16AccessibleObject8isActiveEv@Base 0+git20130108
 _ZNK17QAccessibleClient16AccessibleObject8roleNameEv@Base 0+git20130108
 _ZNK17QAccessibleClient16AccessibleObject9appLocaleENS0_10LocaleTypeE@Base 0+git20130108
 _ZNK17QAccessibleClient16AccessibleObject9imageRectEv@Base 0+git20130108
 _ZNK17QAccessibleClient16AccessibleObject9isCheckedEv@Base 0+git20130108
 _ZNK17QAccessibleClient16AccessibleObject9isDefaultEv@Base 0+git20130108
 _ZNK17QAccessibleClient16AccessibleObject9isDefunctEv@Base 0+git20130108
 _ZNK17QAccessibleClient16AccessibleObject9isEnabledEv@Base 0+git20130108
 _ZNK17QAccessibleClient16AccessibleObject9isFocusedEv@Base 0+git20130108
 _ZNK17QAccessibleClient16AccessibleObject9isVisibleEv@Base 0+git20130108
 _ZNK17QAccessibleClient16AccessibleObject9mdiZOrderEv@Base 0+git20130108
 _ZNK17QAccessibleClient16AccessibleObject9selectionEv@Base 0+git20130108
 _ZNK17QAccessibleClient16AccessibleObjecteqERKS0_@Base 0+git20130108
 _ZNK17QAccessibleClient23RegistryPrivateCacheApi17clientCacheObjectERK7QString@Base 0.6.0
 _ZNK17QAccessibleClient23RegistryPrivateCacheApi18clientCacheObjectsEv@Base 0.6.0
 _ZNK17QAccessibleClient23RegistryPrivateCacheApi9cacheTypeEv@Base 0.6.0
 _ZNK17QAccessibleClient8Registry10metaObjectEv@Base 0+git20130108
 _ZNK17QAccessibleClient8Registry12applicationsEv@Base 0+git20130108
 _ZNK17QAccessibleClient8Registry17accessibleFromUrlERK4QUrl@Base 0+git20130108
 _ZNK17QAccessibleClient8Registry21isScreenReaderEnabledEv@Base 0+git20130108
 _ZNK17QAccessibleClient8Registry23subscribeEventListenersERK6QFlagsINS0_13EventListenerEE@Base 0+git20130108
 _ZNK17QAccessibleClient8Registry24subscribedEventListenersEv@Base 0+git20130108
 _ZNK17QAccessibleClient8Registry9isEnabledEv@Base 0+git20130108
 _ZTI12QDBusContext@Base 0.2.0
 _ZTIN17QAccessibleClient8RegistryE@Base 0+git20130108
 _ZTS12QDBusContext@Base 0.2.0
 _ZTSN17QAccessibleClient8RegistryE@Base 0+git20130108
 _ZTVN17QAccessibleClient8RegistryE@Base 0+git20130108
